target datalayout = "e-m:e-p270:32:32-p271:32:32-p272:64:64-i64:64-i128:128-f80:128-n8:16:32:64-S128"
target triple = "x86_64-unknown-linux-gnu"

%struct.b3DbvtProxy = type <{ %struct.b3BroadphaseProxy, ptr, [2 x ptr], i32, [4 x i8] }>
%struct.b3BroadphaseProxy = type { ptr, i32, i32, i32, [12 x i8], %class.b3Vector3, %class.b3Vector3 }
%class.b3Vector3 = type { %union.anon }
%union.anon = type { [4 x float] }
%struct.b3DynamicBvhBroadphase = type <{ ptr, [2 x %struct.b3DynamicBvh], [3 x ptr], %class.b3AlignedObjectArray.4, ptr, float, i32, i32, i32, i32, i32, i32, i32, i32, float, i32, i32, i8, i8, i8, [5 x i8] }>
%struct.b3DynamicBvh = type { ptr, ptr, i32, i32, i32, [4 x i8], %class.b3AlignedObjectArray, %class.b3AlignedObjectArray.0 }
%class.b3AlignedObjectArray = type <{ %class.b3AlignedAllocator, [3 x i8], i32, i32, [4 x i8], ptr, i8, [7 x i8] }>
%class.b3AlignedAllocator = type { i8 }
%class.b3AlignedObjectArray.0 = type <{ %class.b3AlignedAllocator.1, [3 x i8], i32, i32, [4 x i8], ptr, i8, [7 x i8] }>
%class.b3AlignedAllocator.1 = type { i8 }
%class.b3AlignedObjectArray.4 = type <{ %class.b3AlignedAllocator.5, [3 x i8], i32, i32, [4 x i8], ptr, i8, [7 x i8] }>
%class.b3AlignedAllocator.5 = type { i8 }

; Function Attrs: mustprogress nounwind uwtable
define linkonce_odr dso_local noundef ptr @_ZN17b3BroadphaseProxynwEmPv(i64 noundef %0, ptr noundef %ptr) #3 comdat align 2 {
entry:
  %.addr = alloca i64, align 8
  %ptr.addr = alloca ptr, align 8
  store i64 %0, ptr %.addr, align 8
  store ptr %ptr, ptr %ptr.addr, align 8
  %1 = load ptr, ptr %ptr.addr, align 8
  ret ptr %1
}

; Function Attrs: mustprogress nounwind uwtable
define linkonce_odr dso_local noundef i32 @_ZNK20b3AlignedObjectArrayI11b3DbvtProxyE4sizeEv(ptr noundef nonnull align 8 dereferenceable(25) %this) #3 comdat align 2 {
entry:
  %this.addr = alloca ptr, align 8
  store ptr %this, ptr %this.addr, align 8
  %this1 = load ptr, ptr %this.addr, align 8
  %m_size = getelementptr inbounds %class.b3AlignedObjectArray.4, ptr %this1, i32 0, i32 2
  %0 = load i32, ptr %m_size, align 4
  ret i32 %0
}

; Function Attrs: mustprogress nounwind uwtable
define linkonce_odr dso_local void @_ZN17b3BroadphaseProxyC2Ev(ptr noundef nonnull align 16 dereferenceable(64) %this) unnamed_addr #3 comdat align 2 {
entry:
  %this.addr = alloca ptr, align 8
  store ptr %this, ptr %this.addr, align 8
  %this1 = load ptr, ptr %this.addr, align 8
  %m_clientObject = getelementptr inbounds %struct.b3BroadphaseProxy, ptr %this1, i32 0, i32 0
  store ptr null, ptr %m_clientObject, align 16
  ret void
}

; Function Attrs: mustprogress nounwind uwtable
define linkonce_odr dso_local void @_ZN20b3AlignedObjectArrayI11b3DbvtProxyE4initEv(ptr noundef nonnull align 8 dereferenceable(25) %this) #3 comdat align 2 {
entry:
  %this.addr = alloca ptr, align 8
  store ptr %this, ptr %this.addr, align 8
  %this1 = load ptr, ptr %this.addr, align 8
  %m_ownsMemory = getelementptr inbounds %class.b3AlignedObjectArray.4, ptr %this1, i32 0, i32 6
  store i8 1, ptr %m_ownsMemory, align 8
  %m_data = getelementptr inbounds %class.b3AlignedObjectArray.4, ptr %this1, i32 0, i32 5
  store ptr null, ptr %m_data, align 8
  %m_size = getelementptr inbounds %class.b3AlignedObjectArray.4, ptr %this1, i32 0, i32 2
  store i32 0, ptr %m_size, align 4
  %m_capacity = getelementptr inbounds %class.b3AlignedObjectArray.4, ptr %this1, i32 0, i32 3
  store i32 0, ptr %m_capacity, align 8
  ret void
}

; Function Attrs: mustprogress nounwind uwtable
define linkonce_odr dso_local void @_ZN18b3AlignedAllocatorI11b3DbvtProxyLj16EEC2Ev(ptr noundef nonnull align 1 dereferenceable(1) %this) unnamed_addr #3 comdat align 2 {
entry:
  %this.addr = alloca ptr, align 8
  store ptr %this, ptr %this.addr, align 8
  ret void
}

; Function Attrs: mustprogress uwtable
define linkonce_odr dso_local void @_ZN20b3AlignedObjectArrayI11b3DbvtProxyE6resizeEiRKS0_(ptr noundef nonnull align 8 dereferenceable(25) %this, i32 noundef %newsize, ptr noundef nonnull align 16 dereferenceable(92) %fillData) #0 comdat align 2 {
entry:
  %this.addr = alloca ptr, align 8
  %newsize.addr = alloca i32, align 4
  %fillData.addr = alloca ptr, align 8
  %curSize = alloca i32, align 4
  %i = alloca i32, align 4
  %i6 = alloca i32, align 4
  store ptr %this, ptr %this.addr, align 8
  store i32 %newsize, ptr %newsize.addr, align 4
  store ptr %fillData, ptr %fillData.addr, align 8
  %this1 = load ptr, ptr %this.addr, align 8
  %call = call noundef i32 @_ZNK20b3AlignedObjectArrayI11b3DbvtProxyE4sizeEv(ptr noundef nonnull align 8 dereferenceable(25) %this1)
  store i32 %call, ptr %curSize, align 4
  %0 = load i32, ptr %newsize.addr, align 4
  %1 = load i32, ptr %curSize, align 4
  %cmp = icmp slt i32 %0, %1
  br i1 %cmp, label %if.then, label %if.else

if.then:                                          ; preds = %entry
  %2 = load i32, ptr %newsize.addr, align 4
  store i32 %2, ptr %i, align 4
  br label %for.cond

for.cond:                                         ; preds = %for.inc, %if.then
  %3 = load i32, ptr %i, align 4
  %4 = load i32, ptr %curSize, align 4
  %cmp2 = icmp slt i32 %3, %4
  br i1 %cmp2, label %for.body, label %for.end

for.body:                                         ; preds = %for.cond
  br label %for.inc

for.inc:                                          ; preds = %for.body
  %5 = load i32, ptr %i, align 4
  %inc = add nsw i32 %5, 1
  store i32 %inc, ptr %i, align 4
  br label %for.cond, !llvm.loop !7

for.end:                                          ; preds = %for.cond
  br label %if.end17

if.else:                                          ; preds = %entry
  %6 = load i32, ptr %newsize.addr, align 4
  %call3 = call noundef i32 @_ZNK20b3AlignedObjectArrayI11b3DbvtProxyE4sizeEv(ptr noundef nonnull align 8 dereferenceable(25) %this1)
  %cmp4 = icmp sgt i32 %6, %call3
  br i1 %cmp4, label %if.then5, label %if.end

if.then5:                                         ; preds = %if.else
  %7 = load i32, ptr %newsize.addr, align 4
  call void @_ZN20b3AlignedObjectArrayI11b3DbvtProxyE7reserveEi(ptr noundef nonnull align 8 dereferenceable(25) %this1, i32 noundef %7)
  br label %if.end

if.end:                                           ; preds = %if.then5, %if.else
  %8 = load i32, ptr %curSize, align 4
  store i32 %8, ptr %i6, align 4
  br label %for.cond7

for.cond7:                                        ; preds = %for.inc14, %if.end
  %9 = load i32, ptr %i6, align 4
  %10 = load i32, ptr %newsize.addr, align 4
  %cmp8 = icmp slt i32 %9, %10
  br i1 %cmp8, label %for.body9, label %for.end16

for.body9:                                        ; preds = %for.cond7
  %m_data10 = getelementptr inbounds %class.b3AlignedObjectArray.4, ptr %this1, i32 0, i32 5
  %11 = load ptr, ptr %m_data10, align 8
  %12 = load i32, ptr %i6, align 4
  %idxprom11 = sext i32 %12 to i64
  %arrayidx12 = getelementptr inbounds %struct.b3DbvtProxy, ptr %11, i64 %idxprom11
  %call13 = call noundef ptr @_ZN17b3BroadphaseProxynwEmPv(i64 noundef 96, ptr noundef %arrayidx12)
  %13 = load ptr, ptr %fillData.addr, align 8
  call void @llvm.memcpy.p0.p0.i64(ptr align 16 %call13, ptr align 16 %13, i64 96, i1 false)
  br label %for.inc14

for.inc14:                                        ; preds = %for.body9
  %14 = load i32, ptr %i6, align 4
  %inc15 = add nsw i32 %14, 1
  store i32 %inc15, ptr %i6, align 4
  br label %for.cond7, !llvm.loop !8

for.end16:                                        ; preds = %for.cond7
  br label %if.end17

if.end17:                                         ; preds = %for.end16, %for.end
  %15 = load i32, ptr %newsize.addr, align 4
  %m_size = getelementptr inbounds %class.b3AlignedObjectArray.4, ptr %this1, i32 0, i32 2
  store i32 %15, ptr %m_size, align 4
  ret void
}

; Function Attrs: mustprogress uwtable
define linkonce_odr dso_local void @_ZN11b3DbvtProxyC2Ev(ptr noundef nonnull align 16 dereferenceable(92) %this) unnamed_addr #0 comdat align 2 {
entry:
  %this.addr = alloca ptr, align 8
  store ptr %this, ptr %this.addr, align 8
  %this1 = load ptr, ptr %this.addr, align 8
  call void @_ZN17b3BroadphaseProxyC2Ev(ptr noundef nonnull align 16 dereferenceable(64) %this1)
  ret void
}

; Function Attrs: mustprogress uwtable
define linkonce_odr dso_local void @_ZN20b3AlignedObjectArrayI11b3DbvtProxyEC2Ev(ptr noundef nonnull align 8 dereferenceable(25) %this) unnamed_addr #0 comdat align 2 {
entry:
  %this.addr = alloca ptr, align 8
  store ptr %this, ptr %this.addr, align 8
  %this1 = load ptr, ptr %this.addr, align 8
  %m_allocator = getelementptr inbounds %class.b3AlignedObjectArray.4, ptr %this1, i32 0, i32 0
  call void @_ZN18b3AlignedAllocatorI11b3DbvtProxyLj16EEC2Ev(ptr noundef nonnull align 1 dereferenceable(1) %m_allocator)
  call void @_ZN20b3AlignedObjectArrayI11b3DbvtProxyE4initEv(ptr noundef nonnull align 8 dereferenceable(25) %this1)
  ret void
}

; Function Attrs: mustprogress uwtable
define dso_local void @_ZN22b3DynamicBvhBroadphaseC2EiP22b3OverlappingPairCache(ptr noundef nonnull align 8 dereferenceable(315) %this, i32 noundef %proxyCapacity, ptr noundef %paircache) unnamed_addr #0 align 2 personality ptr @__gxx_personality_v0 {
entry:
  %this.addr = alloca ptr, align 8
  %proxyCapacity.addr = alloca i32, align 4
  %paircache.addr = alloca ptr, align 8
  %exn.slot = alloca ptr, align 8
  %ehselector.slot = alloca i32, align 4
  %i = alloca i32, align 4
  %ref.tmp = alloca %struct.b3DbvtProxy, align 16
  store ptr %this, ptr %this.addr, align 8
  store i32 %proxyCapacity, ptr %proxyCapacity.addr, align 4
  store ptr %paircache, ptr %paircache.addr, align 8
  %this1 = load ptr, ptr %this.addr, align 8
  store ptr getelementptr inbounds ({ [15 x ptr] }, ptr @_ZTV22b3DynamicBvhBroadphase, i32 0, i32 0, i32 2), ptr %this1, align 8
  %m_sets = getelementptr inbounds %struct.b3DynamicBvhBroadphase, ptr %this1, i32 0, i32 1
  %array.begin = getelementptr inbounds [2 x %struct.b3DynamicBvh], ptr %m_sets, i32 0, i32 0
  %arrayctor.end = getelementptr inbounds %struct.b3DynamicBvh, ptr %array.begin, i64 2
  br label %arrayctor.loop

arrayctor.loop:                                   ; preds = %invoke.cont, %entry
  %arrayctor.cur = phi ptr [ %array.begin, %entry ], [ %arrayctor.next, %invoke.cont ]
  invoke void @_ZN12b3DynamicBvhC1Ev(ptr noundef nonnull align 8 dereferenceable(96) %arrayctor.cur)
          to label %invoke.cont unwind label %lpad

invoke.cont:                                      ; preds = %arrayctor.loop
  %arrayctor.next = getelementptr inbounds %struct.b3DynamicBvh, ptr %arrayctor.cur, i64 1
  %arrayctor.done = icmp eq ptr %arrayctor.next, %arrayctor.end
  br i1 %arrayctor.done, label %arrayctor.cont, label %arrayctor.loop

arrayctor.cont:                                   ; preds = %invoke.cont
  %m_proxies = getelementptr inbounds %struct.b3DynamicBvhBroadphase, ptr %this1, i32 0, i32 3
  invoke void @_ZN20b3AlignedObjectArrayI11b3DbvtProxyEC2Ev(ptr noundef nonnull align 8 dereferenceable(25) %m_proxies)
          to label %invoke.cont4 unwind label %lpad3

invoke.cont4:                                     ; preds = %arrayctor.cont
  %m_deferedcollide = getelementptr inbounds %struct.b3DynamicBvhBroadphase, ptr %this1, i32 0, i32 18
  store i8 0, ptr %m_deferedcollide, align 1
  %m_needcleanup = getelementptr inbounds %struct.b3DynamicBvhBroadphase, ptr %this1, i32 0, i32 19
  store i8 1, ptr %m_needcleanup, align 2
  %0 = load ptr, ptr %paircache.addr, align 8
  %cmp = icmp ne ptr %0, null
  %cond = select i1 %cmp, i1 false, i1 true
  %m_releasepaircache = getelementptr inbounds %struct.b3DynamicBvhBroadphase, ptr %this1, i32 0, i32 17
  %frombool = zext i1 %cond to i8
  store i8 %frombool, ptr %m_releasepaircache, align 8
  %m_prediction = getelementptr inbounds %struct.b3DynamicBvhBroadphase, ptr %this1, i32 0, i32 5
  store float 0.000000e+00, ptr %m_prediction, align 8
  %m_stageCurrent = getelementptr inbounds %struct.b3DynamicBvhBroadphase, ptr %this1, i32 0, i32 6
  store i32 0, ptr %m_stageCurrent, align 4
  %m_fixedleft = getelementptr inbounds %struct.b3DynamicBvhBroadphase, ptr %this1, i32 0, i32 11
  store i32 0, ptr %m_fixedleft, align 8
  %m_fupdates = getelementptr inbounds %struct.b3DynamicBvhBroadphase, ptr %this1, i32 0, i32 7
  store i32 1, ptr %m_fupdates, align 8
  %m_dupdates = getelementptr inbounds %struct.b3DynamicBvhBroadphase, ptr %this1, i32 0, i32 8
  store i32 0, ptr %m_dupdates, align 4
  %m_cupdates = getelementptr inbounds %struct.b3DynamicBvhBroadphase, ptr %this1, i32 0, i32 9
  store i32 10, ptr %m_cupdates, align 8
  %m_newpairs = getelementptr inbounds %struct.b3DynamicBvhBroadphase, ptr %this1, i32 0, i32 10
  store i32 1, ptr %m_newpairs, align 4
  %m_updates_call = getelementptr inbounds %struct.b3DynamicBvhBroadphase, ptr %this1, i32 0, i32 12
  store i32 0, ptr %m_updates_call, align 4
  %m_updates_done = getelementptr inbounds %struct.b3DynamicBvhBroadphase, ptr %this1, i32 0, i32 13
  store i32 0, ptr %m_updates_done, align 8
  %m_updates_ratio = getelementptr inbounds %struct.b3DynamicBvhBroadphase, ptr %this1, i32 0, i32 14
  store float 0.000000e+00, ptr %m_updates_ratio, align 4
  %1 = load ptr, ptr %paircache.addr, align 8
  %tobool = icmp ne ptr %1, null
  br i1 %tobool, label %cond.true, label %cond.false

cond.true:                                        ; preds = %invoke.cont4
  %2 = load ptr, ptr %paircache.addr, align 8
  br label %cond.end

cond.false:                                       ; preds = %invoke.cont4
  %call = invoke noundef ptr @_Z22b3AlignedAllocInternalmi(i64 noundef 112, i32 noundef 16)
          to label %invoke.cont6 unwind label %lpad5

invoke.cont6:                                     ; preds = %cond.false
  invoke void @_ZN28b3HashedOverlappingPairCacheC1Ev(ptr noundef nonnull align 8 dereferenceable(112) %call)
          to label %invoke.cont7 unwind label %lpad5

invoke.cont7:                                     ; preds = %invoke.cont6
  br label %cond.end

cond.end:                                         ; preds = %invoke.cont7, %cond.true
  %cond8 = phi ptr [ %2, %cond.true ], [ %call, %invoke.cont7 ]
  %m_paircache = getelementptr inbounds %struct.b3DynamicBvhBroadphase, ptr %this1, i32 0, i32 4
  store ptr %cond8, ptr %m_paircache, align 8
  %m_pid = getelementptr inbounds %struct.b3DynamicBvhBroadphase, ptr %this1, i32 0, i32 15
  store i32 0, ptr %m_pid, align 8
  %m_cid = getelementptr inbounds %struct.b3DynamicBvhBroadphase, ptr %this1, i32 0, i32 16
  store i32 0, ptr %m_cid, align 4
  store i32 0, ptr %i, align 4
  br label %for.cond

for.cond:                                         ; preds = %for.inc, %cond.end
  %3 = load i32, ptr %i, align 4
  %cmp9 = icmp sle i32 %3, 2
  br i1 %cmp9, label %for.body, label %for.end

for.body:                                         ; preds = %for.cond
  %m_stageRoots = getelementptr inbounds %struct.b3DynamicBvhBroadphase, ptr %this1, i32 0, i32 2
  %4 = load i32, ptr %i, align 4
  %idxprom = sext i32 %4 to i64
  %arrayidx = getelementptr inbounds [3 x ptr], ptr %m_stageRoots, i64 0, i64 %idxprom
  store ptr null, ptr %arrayidx, align 8
  br label %for.inc

for.inc:                                          ; preds = %for.body
  %5 = load i32, ptr %i, align 4
  %inc = add nsw i32 %5, 1
  store i32 %inc, ptr %i, align 4
  br label %for.cond, !llvm.loop !5

lpad:                                             ; preds = %arrayctor.loop
  %6 = landingpad { ptr, i32 }
          cleanup
  %7 = extractvalue { ptr, i32 } %6, 0
  store ptr %7, ptr %exn.slot, align 8
  %8 = extractvalue { ptr, i32 } %6, 1
  store i32 %8, ptr %ehselector.slot, align 4
  %arraydestroy.isempty = icmp eq ptr %array.begin, %arrayctor.cur
  br i1 %arraydestroy.isempty, label %arraydestroy.done2, label %arraydestroy.body

arraydestroy.body:                                ; preds = %arraydestroy.body, %lpad
  %arraydestroy.elementPast = phi ptr [ %arrayctor.cur, %lpad ], [ %arraydestroy.element, %arraydestroy.body ]
  %arraydestroy.element = getelementptr inbounds %struct.b3DynamicBvh, ptr %arraydestroy.elementPast, i64 -1
  call void @_ZN12b3DynamicBvhD1Ev(ptr noundef nonnull align 8 dereferenceable(96) %arraydestroy.element) #9
  %arraydestroy.done = icmp eq ptr %arraydestroy.element, %array.begin
  br i1 %arraydestroy.done, label %arraydestroy.done2, label %arraydestroy.body

arraydestroy.done2:                               ; preds = %arraydestroy.body, %lpad
  br label %eh.resume

lpad3:                                            ; preds = %arrayctor.cont
  %9 = landingpad { ptr, i32 }
          cleanup
  %10 = extractvalue { ptr, i32 } %9, 0
  store ptr %10, ptr %exn.slot, align 8
  %11 = extractvalue { ptr, i32 } %9, 1
  store i32 %11, ptr %ehselector.slot, align 4
  br label %ehcleanup

lpad5:                                            ; preds = %invoke.cont11, %for.end, %invoke.cont6, %cond.false
  %12 = landingpad { ptr, i32 }
          cleanup
  %13 = extractvalue { ptr, i32 } %12, 0
  store ptr %13, ptr %exn.slot, align 8
  %14 = extractvalue { ptr, i32 } %12, 1
  store i32 %14, ptr %ehselector.slot, align 4
  call void @_ZN20b3AlignedObjectArrayI11b3DbvtProxyED2Ev(ptr noundef nonnull align 8 dereferenceable(25) %m_proxies) #9
  br label %ehcleanup

for.end:                                          ; preds = %for.cond
  %m_proxies10 = getelementptr inbounds %struct.b3DynamicBvhBroadphase, ptr %this1, i32 0, i32 3
  %15 = load i32, ptr %proxyCapacity.addr, align 4
  invoke void @_ZN11b3DbvtProxyC2Ev(ptr noundef nonnull align 16 dereferenceable(92) %ref.tmp)
          to label %invoke.cont11 unwind label %lpad5

invoke.cont11:                                    ; preds = %for.end
  invoke void @_ZN20b3AlignedObjectArrayI11b3DbvtProxyE6resizeEiRKS0_(ptr noundef nonnull align 8 dereferenceable(25) %m_proxies10, i32 noundef %15, ptr noundef nonnull align 16 dereferenceable(92) %ref.tmp)
          to label %invoke.cont12 unwind label %lpad5

invoke.cont12:                                    ; preds = %invoke.cont11
  ret void

ehcleanup:                                        ; preds = %lpad5, %lpad3
  %array.begin13 = getelementptr inbounds [2 x %struct.b3DynamicBvh], ptr %m_sets, i32 0, i32 0
  %16 = getelementptr inbounds %struct.b3DynamicBvh, ptr %array.begin13, i64 2
  br label %arraydestroy.body14

arraydestroy.body14:                              ; preds = %arraydestroy.body14, %ehcleanup
  %arraydestroy.elementPast15 = phi ptr [ %16, %ehcleanup ], [ %arraydestroy.element16, %arraydestroy.body14 ]
  %arraydestroy.element16 = getelementptr inbounds %struct.b3DynamicBvh, ptr %arraydestroy.elementPast15, i64 -1
  call void @_ZN12b3DynamicBvhD1Ev(ptr noundef nonnull align 8 dereferenceable(96) %arraydestroy.element16) #9
  %arraydestroy.done17 = icmp eq ptr %arraydestroy.element16, %array.begin13
  br i1 %arraydestroy.done17, label %arraydestroy.done18, label %arraydestroy.body14

arraydestroy.done18:                              ; preds = %arraydestroy.body14
  br label %eh.resume

eh.resume:                                        ; preds = %arraydestroy.done18, %arraydestroy.done2
  %exn = load ptr, ptr %exn.slot, align 8
  %sel = load i32, ptr %ehselector.slot, align 4
  %lpad.val = insertvalue { ptr, i32 } poison, ptr %exn, 0
  %lpad.val19 = insertvalue { ptr, i32 } %lpad.val, i32 %sel, 1
  resume { ptr, i32 } %lpad.val19
}