; Function Attrs: mustprogress uwtable
define dso_local void @_ZN22b3DynamicBvhBroadphaseC2EiP22b3OverlappingPairCache(ptr noundef nonnull align 8 dereferenceable(315) %this, i32 noundef %proxyCapacity, ptr noundef %paircache) unnamed_addr #0 align 2 personality ptr @__gxx_personality_v0 {
entry:
  store ptr getelementptr inbounds ({ [15 x ptr] }, ptr @_ZTV22b3DynamicBvhBroadphase, i64 0, i32 0, i64 2), ptr %this, align 8
  br label %arrayctor.loop

arrayctor.loop:                                   ; preds = %invoke.cont, %entry
  %arrayctor.cur.idx = phi i64 [ 8, %entry ], [ %arrayctor.cur.add, %invoke.cont ]
  %arrayctor.cur.ptr.ptr = getelementptr inbounds i8, ptr %this, i64 %arrayctor.cur.idx
  invoke void @_ZN12b3DynamicBvhC1Ev(ptr noundef nonnull align 8 dereferenceable(96) %arrayctor.cur.ptr.ptr)
          to label %invoke.cont unwind label %lpad

invoke.cont:                                      ; preds = %arrayctor.loop
  %arrayctor.cur.add = add nuw nsw i64 %arrayctor.cur.idx, 96
  %arrayctor.done = icmp eq i64 %arrayctor.cur.add, 200
  br i1 %arrayctor.done, label %invoke.cont4, label %arrayctor.loop

invoke.cont4:                                     ; preds = %invoke.cont
  %m_proxies = getelementptr inbounds i8, ptr %this, i64 224
  %m_ownsMemory.i.i = getelementptr inbounds i8, ptr %this, i64 248
  store i8 1, ptr %m_ownsMemory.i.i, align 8
  %m_data.i.i = getelementptr inbounds i8, ptr %this, i64 240
  store ptr null, ptr %m_data.i.i, align 8
  %m_size.i.i = getelementptr inbounds i8, ptr %this, i64 228
  store i32 0, ptr %m_size.i.i, align 4
  %m_capacity.i.i = getelementptr inbounds i8, ptr %this, i64 232
  store i32 0, ptr %m_capacity.i.i, align 8
  %m_deferedcollide = getelementptr inbounds i8, ptr %this, i64 313
  store i8 0, ptr %m_deferedcollide, align 1
  %m_needcleanup = getelementptr inbounds i8, ptr %this, i64 314
  store i8 1, ptr %m_needcleanup, align 2
  %cmp.not = icmp eq ptr %paircache, null
  %m_releasepaircache = getelementptr inbounds i8, ptr %this, i64 312
  %frombool = zext i1 %cmp.not to i8
  store i8 %frombool, ptr %m_releasepaircache, align 8
  %m_prediction = getelementptr inbounds i8, ptr %this, i64 264
  store float 0.000000e+00, ptr %m_prediction, align 8
  %m_stageCurrent = getelementptr inbounds i8, ptr %this, i64 268
  store <4 x i32> <i32 0, i32 1, i32 0, i32 10>, ptr %m_stageCurrent, align 4
  %m_newpairs = getelementptr inbounds i8, ptr %this, i64 284
  store <4 x i32> <i32 1, i32 0, i32 0, i32 0>, ptr %m_newpairs, align 4
  %m_updates_ratio = getelementptr inbounds i8, ptr %this, i64 300
  store float 0.000000e+00, ptr %m_updates_ratio, align 4
  br i1 %cmp.not, label %cond.false, label %cond.end

cond.false:                                       ; preds = %invoke.cont4
  %call = invoke noundef ptr @_Z22b3AlignedAllocInternalmi(i64 noundef 112, i32 noundef 16)
          to label %invoke.cont6 unwind label %lpad5

invoke.cont6:                                     ; preds = %cond.false
  invoke void @_ZN28b3HashedOverlappingPairCacheC1Ev(ptr noundef nonnull align 8 dereferenceable(112) %call)
          to label %invoke.cont6.cond.end_crit_edge unwind label %lpad5

invoke.cont6.cond.end_crit_edge:                  ; preds = %invoke.cont6
  %.pre = load i32, ptr %m_size.i.i, align 4
  br label %cond.end

cond.end:                                         ; preds = %invoke.cont6.cond.end_crit_edge, %invoke.cont4
  %0 = phi i32 [ %.pre, %invoke.cont6.cond.end_crit_edge ], [ 0, %invoke.cont4 ]
  %cond8 = phi ptr [ %call, %invoke.cont6.cond.end_crit_edge ], [ %paircache, %invoke.cont4 ]
  %m_paircache = getelementptr inbounds i8, ptr %this, i64 256
  store ptr %cond8, ptr %m_paircache, align 8
  %m_pid = getelementptr inbounds i8, ptr %this, i64 304
  store i32 0, ptr %m_pid, align 8
  %m_cid = getelementptr inbounds i8, ptr %this, i64 308
  store i32 0, ptr %m_cid, align 4
  %m_stageRoots = getelementptr inbounds i8, ptr %this, i64 200
  tail call void @llvm.memset.p0.i64(ptr noundef nonnull align 8 dereferenceable(24) %m_stageRoots, i8 0, i64 24, i1 false)
  %cmp4.i = icmp slt i32 %0, %proxyCapacity
  br i1 %cmp4.i, label %for.body9.lr.ph.i, label %invoke.cont12

lpad:                                             ; preds = %arrayctor.loop
  %1 = landingpad { ptr, i32 }
          cleanup
  %arraydestroy.isempty = icmp eq i64 %arrayctor.cur.idx, 8
  br i1 %arraydestroy.isempty, label %eh.resume, label %arraydestroy.body

arraydestroy.body:                                ; preds = %lpad, %arraydestroy.body
  %arraydestroy.elementPast.idx = phi i64 [ %arraydestroy.elementPast.add, %arraydestroy.body ], [ %arrayctor.cur.idx, %lpad ]
  %arraydestroy.elementPast.add = add nsw i64 %arraydestroy.elementPast.idx, -96
  %arraydestroy.element.ptr = getelementptr inbounds i8, ptr %this, i64 %arraydestroy.elementPast.add
  tail call void @_ZN12b3DynamicBvhD1Ev(ptr noundef nonnull align 8 dereferenceable(96) %arraydestroy.element.ptr) #15
  %arraydestroy.done = icmp eq i64 %arraydestroy.elementPast.add, 8
  br i1 %arraydestroy.done, label %eh.resume, label %arraydestroy.body

lpad5:                                            ; preds = %for.body9.lr.ph.i, %invoke.cont6, %cond.false
  %2 = landingpad { ptr, i32 }
          cleanup
  tail call void @_ZN20b3AlignedObjectArrayI11b3DbvtProxyED2Ev(ptr noundef nonnull align 8 dereferenceable(25) %m_proxies) #15
  br label %arraydestroy.body14

for.body9.lr.ph.i:                                ; preds = %cond.end
  invoke void @_ZN20b3AlignedObjectArrayI11b3DbvtProxyE7reserveEi(ptr noundef nonnull align 8 dereferenceable(25) %m_proxies, i32 noundef %proxyCapacity)
          to label %.noexc unwind label %lpad5

.noexc:                                           ; preds = %for.body9.lr.ph.i
  %3 = sext i32 %0 to i64
  %wide.trip.count.i = sext i32 %proxyCapacity to i64
  br label %for.body9.i

for.body9.i:                                      ; preds = %for.body9.i, %.noexc
  %indvars.iv.i = phi i64 [ %3, %.noexc ], [ %indvars.iv.next.i, %for.body9.i ]
  %4 = load ptr, ptr %m_data.i.i, align 8
  %arrayidx12.i = getelementptr inbounds %struct.b3DbvtProxy, ptr %4, i64 %indvars.iv.i
  store ptr null, ptr %arrayidx12.i, align 16
  %indvars.iv.next.i = add nsw i64 %indvars.iv.i, 1
  %exitcond.not.i = icmp eq i64 %indvars.iv.next.i, %wide.trip.count.i
  br i1 %exitcond.not.i, label %invoke.cont12, label %for.body9.i, !llvm.loop !5

invoke.cont12:                                    ; preds = %for.body9.i, %cond.end
  store i32 %proxyCapacity, ptr %m_size.i.i, align 4
  ret void

arraydestroy.body14:                              ; preds = %arraydestroy.body14, %lpad5
  %arraydestroy.elementPast15.idx = phi i64 [ 200, %lpad5 ], [ %arraydestroy.elementPast15.add, %arraydestroy.body14 ]
  %arraydestroy.elementPast15.add = add nsw i64 %arraydestroy.elementPast15.idx, -96
  %arraydestroy.element16.ptr = getelementptr inbounds i8, ptr %this, i64 %arraydestroy.elementPast15.add
  tail call void @_ZN12b3DynamicBvhD1Ev(ptr noundef nonnull align 8 dereferenceable(96) %arraydestroy.element16.ptr) #15
  %arraydestroy.done17 = icmp eq i64 %arraydestroy.elementPast15.add, 8
  br i1 %arraydestroy.done17, label %eh.resume, label %arraydestroy.body14

eh.resume:                                        ; preds = %arraydestroy.body, %arraydestroy.body14, %lpad
  %.pn.pn = phi { ptr, i32 } [ %1, %lpad ], [ %2, %arraydestroy.body14 ], [ %1, %arraydestroy.body ]
  resume { ptr, i32 } %.pn.pn
}